(lp0
S'poi'
p1
aS'deferral_payments'
p2
aS'total_payments'
p3
aS'exercised_stock_options'
p4
aS'bonus'
p5
aS'restricted_stock'
p6
aS'restricted_stock_deferred'
p7
aS'expenses'
p8
aS'director_fees'
p9
aS'deferred_income'
p10
a.