(lp0
S'poi'
p1
aS'deferral_payments'
p2
aS'director_fees'
p3
aS'exercised_stock_options'
p4
aS'from_this_person_to_poi'
p5
aS'loan_advances'
p6
aS'other'
p7
aS'restricted_stock_deferred'
p8
aS'salary'
p9
aS'to_messages'
p10
aS'total_payments'
p11
aS'total_stock_value'
p12
a.